SF:/Users/utsavsharma/Documents/GitHub/Coverage/crates/covy-cli/src/cmd_diff.rs
FN:43,_RNvNtCsdtIQu5460bR_4covy8cmd_diff3run
FN:43,_RNvNtCseLLlkZ6lpLN_4covy8cmd_diff3run
FNDA:0,_RNvNtCsdtIQu5460bR_4covy8cmd_diff3run
FNDA:0,_RNvNtCseLLlkZ6lpLN_4covy8cmd_diff3run
FNF:1
FNH:0
DA:43,0
DA:44,0
DA:46,0
DA:47,0
DA:50,0
DA:51,0
DA:52,0
DA:53,0
DA:54,0
DA:56,0
DA:58,0
DA:59,0
DA:60,0
DA:61,0
DA:63,0
DA:65,0
DA:66,0
DA:67,0
DA:71,0
DA:72,0
DA:73,0
DA:76,0
DA:77,0
DA:78,0
DA:79,0
DA:80,0
DA:83,0
DA:86,0
DA:87,0
DA:88,0
DA:89,0
DA:90,0
DA:91,0
DA:92,0
DA:93,0
DA:97,0
DA:98,0
BRF:0
BRH:0
LF:37
LH:0
end_of_record
SF:/Users/utsavsharma/Documents/GitHub/Coverage/crates/covy-cli/src/cmd_ingest.rs
FN:124,_RNvNtCsdtIQu5460bR_4covy10cmd_ingest13load_existing
FN:139,_RNvNtCsdtIQu5460bR_4covy10cmd_ingest20apply_strip_prefixes
FN:35,_RNvNtCsdtIQu5460bR_4covy10cmd_ingest3run
FN:43,_RNCNvNtCsdtIQu5460bR_4covy10cmd_ingest3run0B5_
FN:101,_RNCNvNtCsdtIQu5460bR_4covy10cmd_ingest3runs0_0B5_
FN:86,_RNCNvNtCsdtIQu5460bR_4covy10cmd_ingest3runs_0B5_
FN:43,_RNCNvNtCseLLlkZ6lpLN_4covy10cmd_ingest3run0B5_
FN:101,_RNCNvNtCseLLlkZ6lpLN_4covy10cmd_ingest3runs0_0B5_
FN:86,_RNCNvNtCseLLlkZ6lpLN_4covy10cmd_ingest3runs_0B5_
FN:124,_RNvNtCseLLlkZ6lpLN_4covy10cmd_ingest13load_existing
FN:139,_RNvNtCseLLlkZ6lpLN_4covy10cmd_ingest20apply_strip_prefixes
FN:35,_RNvNtCseLLlkZ6lpLN_4covy10cmd_ingest3run
FNDA:0,_RNvNtCsdtIQu5460bR_4covy10cmd_ingest13load_existing
FNDA:1,_RNvNtCsdtIQu5460bR_4covy10cmd_ingest20apply_strip_prefixes
FNDA:7,_RNvNtCsdtIQu5460bR_4covy10cmd_ingest3run
FNDA:7,_RNCNvNtCsdtIQu5460bR_4covy10cmd_ingest3run0B5_
FNDA:0,_RNCNvNtCsdtIQu5460bR_4covy10cmd_ingest3runs0_0B5_
FNDA:1,_RNCNvNtCsdtIQu5460bR_4covy10cmd_ingest3runs_0B5_
FNDA:0,_RNCNvNtCseLLlkZ6lpLN_4covy10cmd_ingest3run0B5_
FNDA:0,_RNCNvNtCseLLlkZ6lpLN_4covy10cmd_ingest3runs0_0B5_
FNDA:0,_RNCNvNtCseLLlkZ6lpLN_4covy10cmd_ingest3runs_0B5_
FNDA:0,_RNvNtCseLLlkZ6lpLN_4covy10cmd_ingest13load_existing
FNDA:0,_RNvNtCseLLlkZ6lpLN_4covy10cmd_ingest20apply_strip_prefixes
FNDA:0,_RNvNtCseLLlkZ6lpLN_4covy10cmd_ingest3run
FNF:6
FNH:4
DA:35,7
DA:36,7
DA:39,7
DA:40,7
DA:41,7
DA:42,7
DA:43,7
DA:44,7
DA:45,7
DA:46,0
DA:47,7
DA:48,7
DA:51,7
DA:52,0
DA:53,7
DA:56,7
DA:57,7
DA:58,7
DA:59,7
DA:60,7
DA:61,7
DA:62,0
DA:66,7
DA:67,0
DA:69,7
DA:73,7
DA:74,7
DA:75,7
DA:76,0
DA:78,7
DA:82,7
DA:83,7
DA:84,7
DA:85,7
DA:86,7
DA:87,7
DA:89,7
DA:90,6
DA:92,1
DA:95,7
DA:99,7
DA:100,7
DA:101,7
DA:102,7
DA:104,7
DA:105,7
DA:106,0
DA:108,7
DA:109,7
DA:111,7
DA:113,7
DA:114,7
DA:117,7
DA:118,7
DA:119,0
DA:121,7
DA:122,7
DA:124,0
DA:125,0
DA:126,0
DA:127,0
DA:128,0
DA:129,0
DA:130,0
DA:131,0
DA:132,0
DA:134,0
DA:135,0
DA:137,0
DA:139,1
DA:140,1
DA:141,1
DA:142,1
DA:143,1
DA:144,1
DA:145,2
DA:146,2
DA:147,2
DA:148,2
DA:149,2
DA:150,2
DA:151,0
DA:153,2
DA:155,1
DA:156,1
BRF:0
BRH:0
LF:88
LH:67
end_of_record
SF:/Users/utsavsharma/Documents/GitHub/Coverage/crates/covy-cli/src/cmd_report.rs
FN:30,_RNvNtCsdtIQu5460bR_4covy10cmd_report3run
FN:30,_RNvNtCseLLlkZ6lpLN_4covy10cmd_report3run
FNDA:5,_RNvNtCsdtIQu5460bR_4covy10cmd_report3run
FNDA:0,_RNvNtCseLLlkZ6lpLN_4covy10cmd_report3run
FNF:1
FNH:1
DA:30,5
DA:31,5
DA:33,5
DA:34,5
DA:36,5
DA:37,1
DA:39,1
DA:41,4
DA:43,4
DA:44,4
DA:46,4
DA:47,4
DA:48,4
DA:49,4
DA:50,4
DA:52,4
DA:53,4
DA:54,2
DA:55,2
DA:56,2
DA:57,2
DA:58,2
DA:59,2
DA:63,4
DA:64,1
DA:65,1
DA:66,1
DA:67,0
DA:68,0
DA:69,3
DA:71,3
DA:72,5
BRF:0
BRH:0
LF:32
LH:30
end_of_record
SF:/Users/utsavsharma/Documents/GitHub/Coverage/crates/covy-cli/src/main.rs
FN:54,_RNCNvCsdtIQu5460bR_4covy4main0B3_
FN:40,_RNvCsdtIQu5460bR_4covy4main
FN:54,_RNCNvCseLLlkZ6lpLN_4covy4main0B3_
FN:40,_RNvCseLLlkZ6lpLN_4covy4main
FNDA:12,_RNCNvCsdtIQu5460bR_4covy4main0B3_
FNDA:13,_RNvCsdtIQu5460bR_4covy4main
FNDA:0,_RNCNvCseLLlkZ6lpLN_4covy4main0B3_
FNDA:0,_RNvCseLLlkZ6lpLN_4covy4main
FNF:2
FNH:2
DA:40,13
DA:41,13
DA:44,13
DA:45,0
DA:46,13
DA:47,0
DA:49,13
DA:51,13
DA:52,13
DA:53,13
DA:54,13
DA:56,13
DA:57,13
DA:58,13
DA:61,13
DA:62,13
DA:63,11
DA:64,11
DA:67,13
DA:68,8
DA:69,5
DA:70,0
DA:73,13
DA:74,12
DA:75,1
DA:76,1
DA:77,1
BRF:0
BRH:0
LF:28
LH:25
end_of_record
SF:/Users/utsavsharma/Documents/GitHub/Coverage/crates/covy-core/src/cache.rs
FN:31,_RNvMNtCsiNDW6BurL4c_9covy_core5cacheNtB2_13CoverageCache3get
FN:14,_RNvMNtCsiNDW6BurL4c_9covy_core5cacheNtB2_13CoverageCache3new
FN:55,_RNvMNtCsiNDW6BurL4c_9covy_core5cacheNtB2_13CoverageCache3put
FN:65,_RNvMNtCsiNDW6BurL4c_9covy_core5cacheNtB2_13CoverageCache5evict
FN:22,_RNvMNtCsiNDW6BurL4c_9covy_core5cacheNtB2_13CoverageCache9cache_key
FN:108,_RNvNtCsiNDW6BurL4c_9covy_core5cache18serialize_coverage
FN:142,_RNvNtCsiNDW6BurL4c_9covy_core5cache20deserialize_coverage
FN:96,_RNvXs_NtCsiNDW6BurL4c_9covy_core5cacheNtB4_12CachedResultINtNtCsezyhsC6CBT9_4core7convert4FromRNtNtB6_5model17QualityGateResultE4from
FN:50,_RNCNvMNtCsiNDW6BurL4c_9covy_core5cacheNtB4_13CoverageCache3get0B6_
FN:59,_RNCNvMNtCsiNDW6BurL4c_9covy_core5cacheNtB4_13CoverageCache3put0B6_
FN:125,_RNCNvNtCsiNDW6BurL4c_9covy_core5cache18serialize_coverage0B5_
FN:132,_RNCNvNtCsiNDW6BurL4c_9covy_core5cache18serialize_coverages_0B5_
FN:147,_RNCNvNtCsiNDW6BurL4c_9covy_core5cache20deserialize_coverage0B5_
FN:180,_RNCNvNtCsiNDW6BurL4c_9covy_core5cache20deserialize_coverages0_0B5_
FN:172,_RNCNvNtCsiNDW6BurL4c_9covy_core5cache20deserialize_coverages_0B5_
FN:50,_RNCNvMNtCsdQn9z6oCjmV_9covy_core5cacheNtB4_13CoverageCache3get0B6_
FN:59,_RNCNvMNtCsdQn9z6oCjmV_9covy_core5cacheNtB4_13CoverageCache3put0B6_
FN:125,_RNCNvNtCsdQn9z6oCjmV_9covy_core5cache18serialize_coverage0B5_
FN:132,_RNCNvNtCsdQn9z6oCjmV_9covy_core5cache18serialize_coverages_0B5_
FN:147,_RNCNvNtCsdQn9z6oCjmV_9covy_core5cache20deserialize_coverage0B5_
FN:180,_RNCNvNtCsdQn9z6oCjmV_9covy_core5cache20deserialize_coverages0_0B5_
FN:172,_RNCNvNtCsdQn9z6oCjmV_9covy_core5cache20deserialize_coverages_0B5_
FN:213,_RNvNtNtCsdQn9z6oCjmV_9covy_core5cache5testss_20test_cache_roundtrip
FN:233,_RNvNtNtCsdQn9z6oCjmV_9covy_core5cache5testss_37test_coverage_serialization_roundtrip
FN:31,_RNvMNtCsdQn9z6oCjmV_9covy_core5cacheNtB2_13CoverageCache3get
FN:14,_RNvMNtCsdQn9z6oCjmV_9covy_core5cacheNtB2_13CoverageCache3new
FN:55,_RNvMNtCsdQn9z6oCjmV_9covy_core5cacheNtB2_13CoverageCache3put
FN:22,_RNvMNtCsdQn9z6oCjmV_9covy_core5cacheNtB2_13CoverageCache9cache_key
FN:108,_RNvNtCsdQn9z6oCjmV_9covy_core5cache18serialize_coverage
FN:142,_RNvNtCsdQn9z6oCjmV_9covy_core5cache20deserialize_coverage
FN:65,_RNvMNtCsdQn9z6oCjmV_9covy_core5cacheNtB2_13CoverageCache5evict
FN:96,_RNvXs_NtCsdQn9z6oCjmV_9covy_core5cacheNtB4_12CachedResultINtNtCsezyhsC6CBT9_4core7convert4FromRNtNtB6_5model17QualityGateResultE4from
FNDA:0,_RNvMNtCsiNDW6BurL4c_9covy_core5cacheNtB2_13CoverageCache3get
FNDA:0,_RNvMNtCsiNDW6BurL4c_9covy_core5cacheNtB2_13CoverageCache3new
FNDA:0,_RNvMNtCsiNDW6BurL4c_9covy_core5cacheNtB2_13CoverageCache3put
FNDA:0,_RNvMNtCsiNDW6BurL4c_9covy_core5cacheNtB2_13CoverageCache5evict
FNDA:0,_RNvMNtCsiNDW6BurL4c_9covy_core5cacheNtB2_13CoverageCache9cache_key
FNDA:7,_RNvNtCsiNDW6BurL4c_9covy_core5cache18serialize_coverage
FNDA:4,_RNvNtCsiNDW6BurL4c_9covy_core5cache20deserialize_coverage
FNDA:0,_RNvXs_NtCsiNDW6BurL4c_9covy_core5cacheNtB4_12CachedResultINtNtCsezyhsC6CBT9_4core7convert4FromRNtNtB6_5model17QualityGateResultE4from
FNDA:0,_RNCNvMNtCsiNDW6BurL4c_9covy_core5cacheNtB4_13CoverageCache3get0B6_
FNDA:0,_RNCNvMNtCsiNDW6BurL4c_9covy_core5cacheNtB4_13CoverageCache3put0B6_
FNDA:0,_RNCNvNtCsiNDW6BurL4c_9covy_core5cache18serialize_coverage0B5_
FNDA:0,_RNCNvNtCsiNDW6BurL4c_9covy_core5cache18serialize_coverages_0B5_
FNDA:28,_RNCNvNtCsiNDW6BurL4c_9covy_core5cache20deserialize_coverage0B5_
FNDA:0,_RNCNvNtCsiNDW6BurL4c_9covy_core5cache20deserialize_coverages0_0B5_
FNDA:0,_RNCNvNtCsiNDW6BurL4c_9covy_core5cache20deserialize_coverages_0B5_
FNDA:0,_RNCNvMNtCsdQn9z6oCjmV_9covy_core5cacheNtB4_13CoverageCache3get0B6_
FNDA:0,_RNCNvMNtCsdQn9z6oCjmV_9covy_core5cacheNtB4_13CoverageCache3put0B6_
FNDA:0,_RNCNvNtCsdQn9z6oCjmV_9covy_core5cache18serialize_coverage0B5_
FNDA:0,_RNCNvNtCsdQn9z6oCjmV_9covy_core5cache18serialize_coverages_0B5_
FNDA:4,_RNCNvNtCsdQn9z6oCjmV_9covy_core5cache20deserialize_coverage0B5_
FNDA:0,_RNCNvNtCsdQn9z6oCjmV_9covy_core5cache20deserialize_coverages0_0B5_
FNDA:0,_RNCNvNtCsdQn9z6oCjmV_9covy_core5cache20deserialize_coverages_0B5_
FNDA:1,_RNvNtNtCsdQn9z6oCjmV_9covy_core5cache5testss_20test_cache_roundtrip
FNDA:1,_RNvNtNtCsdQn9z6oCjmV_9covy_core5cache5testss_37test_coverage_serialization_roundtrip
FNDA:1,_RNvMNtCsdQn9z6oCjmV_9covy_core5cacheNtB2_13CoverageCache3get
FNDA:1,_RNvMNtCsdQn9z6oCjmV_9covy_core5cacheNtB2_13CoverageCache3new
FNDA:1,_RNvMNtCsdQn9z6oCjmV_9covy_core5cacheNtB2_13CoverageCache3put
FNDA:1,_RNvMNtCsdQn9z6oCjmV_9covy_core5cacheNtB2_13CoverageCache9cache_key
FNDA:1,_RNvNtCsdQn9z6oCjmV_9covy_core5cache18serialize_coverage
FNDA:1,_RNvNtCsdQn9z6oCjmV_9covy_core5cache20deserialize_coverage
FNDA:0,_RNvMNtCsdQn9z6oCjmV_9covy_core5cacheNtB2_13CoverageCache5evict
FNDA:0,_RNvXs_NtCsdQn9z6oCjmV_9covy_core5cacheNtB4_12CachedResultINtNtCsezyhsC6CBT9_4core7convert4FromRNtNtB6_5model17QualityGateResultE4from
FNF:17
FNH:9
DA:14,1
DA:15,1
DA:16,1
DA:17,1
DA:18,1
DA:19,1
DA:22,1
DA:23,1
DA:24,1
DA:25,1
DA:26,1
DA:27,1
DA:28,1
DA:31,1
DA:32,1
DA:33,1
DA:34,0
DA:35,1
DA:38,1
DA:39,1
DA:40,1
DA:41,1
DA:42,0
DA:43,0
DA:44,1
DA:45,0
DA:46,0
DA:48,1
DA:49,1
DA:50,1
DA:51,1
DA:52,1
DA:55,1
DA:56,1
DA:57,1
DA:58,1
DA:59,1
DA:60,1
DA:61,1
DA:62,1
DA:65,0
DA:66,0
DA:67,0
DA:68,0
DA:69,0
DA:70,0
DA:71,0
DA:72,0
DA:73,0
DA:74,0
DA:75,0
DA:76,0
DA:77,0
DA:78,0
DA:79,0
DA:81,0
DA:82,0
DA:96,0
DA:97,0
DA:98,0
DA:99,0
DA:100,0
DA:101,0
DA:102,0
DA:103,0
DA:104,0
DA:108,8
DA:110,8
DA:113,8
DA:114,8
DA:116,14
DA:118,14
DA:119,14
DA:120,14
DA:123,14
DA:124,14
DA:125,14
DA:126,14
DA:127,14
DA:130,14
DA:131,14
DA:132,14
DA:133,14
DA:134,14
DA:137,8
DA:138,8
DA:139,8
DA:142,5
DA:146,5
DA:147,32
DA:148,32
DA:149,0
DA:150,32
DA:151,32
DA:152,32
DA:153,32
DA:154,32
DA:156,5
DA:157,5
DA:159,5
DA:160,9
DA:161,9
DA:162,0
DA:163,9
DA:164,9
DA:165,9
DA:167,9
DA:168,9
DA:169,0
DA:170,9
DA:171,9
DA:172,9
DA:173,9
DA:175,9
DA:176,9
DA:177,0
DA:178,9
DA:179,9
DA:180,9
DA:181,9
DA:183,9
DA:184,9
DA:185,9
DA:186,9
DA:187,9
DA:188,9
DA:189,9
DA:190,9
DA:194,5
DA:195,5
DA:197,0
DA:200,5
DA:201,5
DA:202,5
DA:203,5
DA:204,5
DA:205,5
DA:213,1
DA:214,1
DA:215,1
DA:217,1
DA:218,1
DA:219,1
DA:220,1
DA:221,1
DA:222,1
DA:223,1
DA:225,1
DA:226,1
DA:227,1
DA:228,1
DA:229,1
DA:230,1
DA:233,1
DA:234,1
DA:235,1
DA:236,1
DA:237,1
DA:238,1
DA:239,1
DA:240,1
DA:241,1
DA:243,1
DA:244,1
DA:245,1
DA:246,1
DA:247,1
DA:248,1
DA:249,1
BRF:0
BRH:0
LF:176
LH:134
end_of_record
SF:/Users/utsavsharma/Documents/GitHub/Coverage/crates/covy-core/src/config.rs
FN:161,_RNvMs6_NtCsiNDW6BurL4c_9covy_core6configNtB5_10CovyConfig13find_and_load
FN:151,_RNvMs6_NtCsiNDW6BurL4c_9covy_core6configNtB5_10CovyConfig4load
FN:72,_RNvXNtCsiNDW6BurL4c_9covy_core6configNtB2_10CovyConfigNtNtCsezyhsC6CBT9_4core7default7Default7default
FN:95,_RNvXs0_NtCsiNDW6BurL4c_9covy_core6configNtB5_12IngestConfigNtNtCsezyhsC6CBT9_4core7default7Default7default
FN:104,_RNvXs1_NtCsiNDW6BurL4c_9covy_core6configNtB5_10DiffConfigNtNtCsezyhsC6CBT9_4core7default7Default7default
FN:113,_RNvXs2_NtCsiNDW6BurL4c_9covy_core6configNtB5_10GateConfigNtNtCsezyhsC6CBT9_4core7default7Default7default
FN:123,_RNvXs3_NtCsiNDW6BurL4c_9covy_core6configNtB5_12ReportConfigNtNtCsezyhsC6CBT9_4core7default7Default7default
FN:132,_RNvXs4_NtCsiNDW6BurL4c_9covy_core6configNtB5_11CacheConfigNtNtCsezyhsC6CBT9_4core7default7Default7default
FN:142,_RNvXs5_NtCsiNDW6BurL4c_9covy_core6configNtB5_17PathMappingConfigNtNtCsezyhsC6CBT9_4core7default7Default7default
FN:86,_RNvXs_NtCsiNDW6BurL4c_9covy_core6configNtB4_13ProjectConfigNtNtCsezyhsC6CBT9_4core7default7Default7default
FN:161,_RNvMs6_NtCsdQn9z6oCjmV_9covy_core6configNtB5_10CovyConfig13find_and_load
FN:151,_RNvMs6_NtCsdQn9z6oCjmV_9covy_core6configNtB5_10CovyConfig4load
FN:72,_RNvXNtCsdQn9z6oCjmV_9covy_core6configNtB2_10CovyConfigNtNtCsezyhsC6CBT9_4core7default7Default7default
FN:95,_RNvXs0_NtCsdQn9z6oCjmV_9covy_core6configNtB5_12IngestConfigNtNtCsezyhsC6CBT9_4core7default7Default7default
FN:104,_RNvXs1_NtCsdQn9z6oCjmV_9covy_core6configNtB5_10DiffConfigNtNtCsezyhsC6CBT9_4core7default7Default7default
FN:113,_RNvXs2_NtCsdQn9z6oCjmV_9covy_core6configNtB5_10GateConfigNtNtCsezyhsC6CBT9_4core7default7Default7default
FN:123,_RNvXs3_NtCsdQn9z6oCjmV_9covy_core6configNtB5_12ReportConfigNtNtCsezyhsC6CBT9_4core7default7Default7default
FN:132,_RNvXs4_NtCsdQn9z6oCjmV_9covy_core6configNtB5_11CacheConfigNtNtCsezyhsC6CBT9_4core7default7Default7default
FN:142,_RNvXs5_NtCsdQn9z6oCjmV_9covy_core6configNtB5_17PathMappingConfigNtNtCsezyhsC6CBT9_4core7default7Default7default
FN:86,_RNvXs_NtCsdQn9z6oCjmV_9covy_core6configNtB4_13ProjectConfigNtNtCsezyhsC6CBT9_4core7default7Default7default
FNDA:0,_RNvMs6_NtCsiNDW6BurL4c_9covy_core6configNtB5_10CovyConfig13find_and_load
FNDA:12,_RNvMs6_NtCsiNDW6BurL4c_9covy_core6configNtB5_10CovyConfig4load
FNDA:12,_RNvXNtCsiNDW6BurL4c_9covy_core6configNtB2_10CovyConfigNtNtCsezyhsC6CBT9_4core7default7Default7default
FNDA:12,_RNvXs0_NtCsiNDW6BurL4c_9covy_core6configNtB5_12IngestConfigNtNtCsezyhsC6CBT9_4core7default7Default7default
FNDA:12,_RNvXs1_NtCsiNDW6BurL4c_9covy_core6configNtB5_10DiffConfigNtNtCsezyhsC6CBT9_4core7default7Default7default
FNDA:12,_RNvXs2_NtCsiNDW6BurL4c_9covy_core6configNtB5_10GateConfigNtNtCsezyhsC6CBT9_4core7default7Default7default
FNDA:12,_RNvXs3_NtCsiNDW6BurL4c_9covy_core6configNtB5_12ReportConfigNtNtCsezyhsC6CBT9_4core7default7Default7default
FNDA:12,_RNvXs4_NtCsiNDW6BurL4c_9covy_core6configNtB5_11CacheConfigNtNtCsezyhsC6CBT9_4core7default7Default7default
FNDA:12,_RNvXs5_NtCsiNDW6BurL4c_9covy_core6configNtB5_17PathMappingConfigNtNtCsezyhsC6CBT9_4core7default7Default7default
FNDA:12,_RNvXs_NtCsiNDW6BurL4c_9covy_core6configNtB4_13ProjectConfigNtNtCsezyhsC6CBT9_4core7default7Default7default
FNDA:0,_RNvMs6_NtCsdQn9z6oCjmV_9covy_core6configNtB5_10CovyConfig13find_and_load
FNDA:0,_RNvMs6_NtCsdQn9z6oCjmV_9covy_core6configNtB5_10CovyConfig4load
FNDA:0,_RNvXNtCsdQn9z6oCjmV_9covy_core6configNtB2_10CovyConfigNtNtCsezyhsC6CBT9_4core7default7Default7default
FNDA:0,_RNvXs0_NtCsdQn9z6oCjmV_9covy_core6configNtB5_12IngestConfigNtNtCsezyhsC6CBT9_4core7default7Default7default
FNDA:0,_RNvXs1_NtCsdQn9z6oCjmV_9covy_core6configNtB5_10DiffConfigNtNtCsezyhsC6CBT9_4core7default7Default7default
FNDA:0,_RNvXs2_NtCsdQn9z6oCjmV_9covy_core6configNtB5_10GateConfigNtNtCsezyhsC6CBT9_4core7default7Default7default
FNDA:0,_RNvXs3_NtCsdQn9z6oCjmV_9covy_core6configNtB5_12ReportConfigNtNtCsezyhsC6CBT9_4core7default7Default7default
FNDA:0,_RNvXs4_NtCsdQn9z6oCjmV_9covy_core6configNtB5_11CacheConfigNtNtCsezyhsC6CBT9_4core7default7Default7default
FNDA:0,_RNvXs5_NtCsdQn9z6oCjmV_9covy_core6configNtB5_17PathMappingConfigNtNtCsezyhsC6CBT9_4core7default7Default7default
FNDA:0,_RNvXs_NtCsdQn9z6oCjmV_9covy_core6configNtB4_13ProjectConfigNtNtCsezyhsC6CBT9_4core7default7Default7default
FNF:10
FNH:9
DA:72,12
DA:73,12
DA:74,12
DA:75,12
DA:76,12
DA:77,12
DA:78,12
DA:79,12
DA:80,12
DA:81,12
DA:82,12
DA:86,12
DA:87,12
DA:88,12
DA:89,12
DA:90,12
DA:91,12
DA:95,12
DA:96,12
DA:97,12
DA:98,12
DA:99,12
DA:100,12
DA:104,12
DA:105,12
DA:106,12
DA:107,12
DA:108,12
DA:109,12
DA:113,12
DA:114,12
DA:115,12
DA:116,12
DA:117,12
DA:118,12
DA:119,12
DA:123,12
DA:124,12
DA:125,12
DA:126,12
DA:127,12
DA:128,12
DA:132,12
DA:133,12
DA:134,12
DA:135,12
DA:136,12
DA:137,12
DA:138,12
DA:142,12
DA:143,12
DA:144,12
DA:145,12
DA:146,12
DA:151,12
DA:152,12
DA:153,12
DA:154,0
DA:155,0
DA:156,0
DA:157,0
DA:158,12
DA:161,0
DA:162,0
DA:164,0
DA:165,0
DA:166,0
DA:167,0
DA:168,0
DA:169,0
DA:170,0
DA:172,0
DA:173,0
BRF:0
BRH:0
LF:73
LH:58
end_of_record
SF:/Users/utsavsharma/Documents/GitHub/Coverage/crates/covy-core/src/diff.rs
FN:25,_RNvNtCsiNDW6BurL4c_9covy_core4diff17parse_diff_output
FN:78,_RNvNtCsiNDW6BurL4c_9covy_core4diff17parse_hunk_header
FN:9,_RNvNtCsiNDW6BurL4c_9covy_core4diff8git_diff
FN:13,_RNCNvNtCsiNDW6BurL4c_9covy_core4diff8git_diff0B5_
FN:25,_RNvNtCsdQn9z6oCjmV_9covy_core4diff17parse_diff_output
FN:78,_RNvNtCsdQn9z6oCjmV_9covy_core4diff17parse_hunk_header
FN:108,_RNvNtNtCsdQn9z6oCjmV_9covy_core4diff5testss_21test_parse_hunk_range
FN:159,_RNvNtNtCsdQn9z6oCjmV_9covy_core4diff5testss_22test_parse_diff_rename
FN:141,_RNvNtNtCsdQn9z6oCjmV_9covy_core4diff5testss_24test_parse_diff_new_file
FN:103,_RNvNtNtCsdQn9z6oCjmV_9covy_core4diff5testss_27test_parse_hunk_single_line
FN:118,_RNvNtNtCsdQn9z6oCjmV_9covy_core4diff5testss_28test_parse_diff_output_basic
FN:113,_RNvNtNtCsdQn9z6oCjmV_9covy_core4diff5testss_29test_parse_hunk_deletion_only
FN:13,_RNCNvNtCsdQn9z6oCjmV_9covy_core4diff8git_diff0B5_
FN:9,_RNvNtCsdQn9z6oCjmV_9covy_core4diff8git_diff
FNDA:5,_RNvNtCsiNDW6BurL4c_9covy_core4diff17parse_diff_output
FNDA:6,_RNvNtCsiNDW6BurL4c_9covy_core4diff17parse_hunk_header
FNDA:0,_RNvNtCsiNDW6BurL4c_9covy_core4diff8git_diff
FNDA:0,_RNCNvNtCsiNDW6BurL4c_9covy_core4diff8git_diff0B5_
FNDA:3,_RNvNtCsdQn9z6oCjmV_9covy_core4diff17parse_diff_output
FNDA:6,_RNvNtCsdQn9z6oCjmV_9covy_core4diff17parse_hunk_header
FNDA:1,_RNvNtNtCsdQn9z6oCjmV_9covy_core4diff5testss_21test_parse_hunk_range
FNDA:1,_RNvNtNtCsdQn9z6oCjmV_9covy_core4diff5testss_22test_parse_diff_rename
FNDA:1,_RNvNtNtCsdQn9z6oCjmV_9covy_core4diff5testss_24test_parse_diff_new_file
FNDA:1,_RNvNtNtCsdQn9z6oCjmV_9covy_core4diff5testss_27test_parse_hunk_single_line
FNDA:1,_RNvNtNtCsdQn9z6oCjmV_9covy_core4diff5testss_28test_parse_diff_output_basic
FNDA:1,_RNvNtNtCsdQn9z6oCjmV_9covy_core4diff5testss_29test_parse_hunk_deletion_only
FNDA:0,_RNCNvNtCsdQn9z6oCjmV_9covy_core4diff8git_diff0B5_
FNDA:0,_RNvNtCsdQn9z6oCjmV_9covy_core4diff8git_diff
FNF:10
FNH:8
DA:9,0
DA:10,0
DA:11,0
DA:12,0
DA:13,0
DA:15,0
DA:16,0
DA:17,0
DA:18,0
DA:20,0
DA:21,0
DA:22,0
DA:25,8
DA:26,8
DA:27,8
DA:28,8
DA:29,8
DA:30,8
DA:32,76
DA:33,76
DA:35,8
DA:36,1
DA:37,1
DA:38,1
DA:39,1
DA:40,1
DA:41,1
DA:42,7
DA:43,8
DA:44,8
DA:45,68
DA:46,8
DA:47,60
DA:48,0
DA:49,60
DA:50,2
DA:51,58
DA:52,2
DA:53,2
DA:54,56
DA:56,9
DA:57,28
DA:58,28
DA:59,28
DA:60,0
DA:61,47
DA:65,8
DA:66,7
DA:67,7
DA:68,7
DA:69,7
DA:70,7
DA:71,7
DA:72,7
DA:74,8
DA:75,8
DA:78,12
DA:80,12
DA:81,12
DA:82,12
DA:83,12
DA:85,12
DA:86,8
DA:87,8
DA:88,8
DA:89,1
DA:90,7
DA:91,7
DA:93,4
DA:94,4
DA:96,12
DA:103,1
DA:104,1
DA:105,1
DA:108,1
DA:109,1
DA:110,1
DA:113,1
DA:114,1
DA:115,1
DA:118,1
DA:119,1
DA:120,1
DA:121,1
DA:122,1
DA:123,1
DA:124,1
DA:125,1
DA:126,1
DA:127,1
DA:128,1
DA:129,1
DA:130,1
DA:131,1
DA:132,1
DA:133,1
DA:134,1
DA:135,1
DA:136,1
DA:137,1
DA:138,1
DA:141,1
DA:142,1
DA:143,1
DA:144,1
DA:145,1
DA:146,1
DA:147,1
DA:148,1
DA:149,1
DA:150,1
DA:151,1
DA:152,1
DA:153,1
DA:154,1
DA:155,1
DA:156,1
DA:159,1
DA:160,1
DA:161,1
DA:162,1
DA:163,1
DA:164,1
DA:165,1
DA:166,1
DA:167,1
DA:168,1
DA:169,1
DA:170,1
DA:171,1
DA:172,1
DA:173,1
DA:174,1
DA:175,1
BRF:0
BRH:0
LF:135
LH:120
end_of_record
SF:/Users/utsavsharma/Documents/GitHub/Coverage/crates/covy-core/src/error.rs
FN:34,_RNvXNtCsiNDW6BurL4c_9covy_core5errorNtB2_9CovyErrorINtNtCsezyhsC6CBT9_4core7convert4FromNtNtCsh5y6tVx1ip1_4toml2de5ErrorE4from
FN:34,_RNvXNtCsdQn9z6oCjmV_9covy_core5errorNtB2_9CovyErrorINtNtCsezyhsC6CBT9_4core7convert4FromNtNtCsh5y6tVx1ip1_4toml2de5ErrorE4from
FNDA:0,_RNvXNtCsiNDW6BurL4c_9covy_core5errorNtB2_9CovyErrorINtNtCsezyhsC6CBT9_4core7convert4FromNtNtCsh5y6tVx1ip1_4toml2de5ErrorE4from
FNDA:0,_RNvXNtCsdQn9z6oCjmV_9covy_core5errorNtB2_9CovyErrorINtNtCsezyhsC6CBT9_4core7convert4FromNtNtCsh5y6tVx1ip1_4toml2de5ErrorE4from
FNF:1
FNH:0
DA:34,0
DA:35,0
DA:36,0
BRF:0
BRH:0
LF:3
LH:0
end_of_record
SF:/Users/utsavsharma/Documents/GitHub/Coverage/crates/covy-core/src/gate.rs
FN:5,_RNvNtCsiNDW6BurL4c_9covy_core4gate13evaluate_gate
FN:56,_RNvNtCsiNDW6BurL4c_9covy_core4gate24compute_changed_coverage
FN:87,_RNvNtCsiNDW6BurL4c_9covy_core4gate25compute_new_file_coverage
FN:5,_RNvNtCsdQn9z6oCjmV_9covy_core4gate13evaluate_gate
FN:56,_RNvNtCsdQn9z6oCjmV_9covy_core4gate24compute_changed_coverage
FN:87,_RNvNtCsdQn9z6oCjmV_9covy_core4gate25compute_new_file_coverage
FN:113,_RNvNtNtCsdQn9z6oCjmV_9covy_core4gate5tests13make_coverage
FN:128,_RNvNtNtCsdQn9z6oCjmV_9covy_core4gate5tests9make_diff
FN:142,_RNvNtNtCsdQn9z6oCjmV_9covy_core4gate5testss_16test_gate_passes
FN:159,_RNvNtNtCsdQn9z6oCjmV_9covy_core4gate5testss_21test_gate_fails_total
FN:177,_RNvNtNtCsdQn9z6oCjmV_9covy_core4gate5testss_23test_gate_fails_changed
FN:211,_RNvNtNtCsdQn9z6oCjmV_9covy_core4gate5testss_26test_gate_no_coverage_data
FN:195,_RNvNtNtCsdQn9z6oCjmV_9covy_core4gate5testss_27test_gate_new_file_coverage
FNDA:5,_RNvNtCsiNDW6BurL4c_9covy_core4gate13evaluate_gate
FNDA:5,_RNvNtCsiNDW6BurL4c_9covy_core4gate24compute_changed_coverage
FNDA:5,_RNvNtCsiNDW6BurL4c_9covy_core4gate25compute_new_file_coverage
FNDA:5,_RNvNtCsdQn9z6oCjmV_9covy_core4gate13evaluate_gate
FNDA:5,_RNvNtCsdQn9z6oCjmV_9covy_core4gate24compute_changed_coverage
FNDA:5,_RNvNtCsdQn9z6oCjmV_9covy_core4gate25compute_new_file_coverage
FNDA:4,_RNvNtNtCsdQn9z6oCjmV_9covy_core4gate5tests13make_coverage
FNDA:3,_RNvNtNtCsdQn9z6oCjmV_9covy_core4gate5tests9make_diff
FNDA:1,_RNvNtNtCsdQn9z6oCjmV_9covy_core4gate5testss_16test_gate_passes
FNDA:1,_RNvNtNtCsdQn9z6oCjmV_9covy_core4gate5testss_21test_gate_fails_total
FNDA:1,_RNvNtNtCsdQn9z6oCjmV_9covy_core4gate5testss_23test_gate_fails_changed
FNDA:1,_RNvNtNtCsdQn9z6oCjmV_9covy_core4gate5testss_26test_gate_no_coverage_data
FNDA:1,_RNvNtNtCsdQn9z6oCjmV_9covy_core4gate5testss_27test_gate_new_file_coverage
FNF:10
FNH:10
DA:5,10
DA:6,10
DA:7,10
DA:8,10
DA:9,10
DA:10,10
DA:11,10
DA:14,10
DA:15,10
DA:16,3
DA:17,1
DA:18,1
DA:19,1
DA:20,1
DA:21,2
DA:22,7
DA:25,10
DA:26,10
DA:27,6
DA:28,3
DA:29,3
DA:30,3
DA:31,3
DA:32,3
DA:33,4
DA:36,10
DA:37,10
DA:38,2
DA:39,0
DA:40,0
DA:41,0
DA:42,0
DA:43,2
DA:44,8
DA:46,10
DA:47,10
DA:48,10
DA:49,10
DA:50,10
DA:51,10
DA:52,10
DA:53,10
DA:56,10
DA:57,10
DA:58,10
DA:60,10
DA:61,9
DA:62,1
DA:63,8
DA:64,8
DA:65,0
DA:66,8
DA:68,8
DA:69,7
DA:70,7
DA:71,7
DA:72,7
DA:73,7
DA:74,7
DA:75,1
DA:76,1
DA:77,1
DA:80,10
DA:81,3
DA:82,7
DA:83,7
DA:84,10
DA:87,10
DA:88,10
DA:89,10
DA:91,10
DA:92,9
DA:93,7
DA:94,2
DA:95,2
DA:96,2
DA:97,2
DA:98,2
DA:101,10
DA:102,8
DA:103,2
DA:104,2
DA:105,10
DA:113,4
DA:114,4
DA:115,4
DA:116,4
DA:117,9
DA:118,9
DA:119,9
DA:120,23
DA:121,23
DA:122,23
DA:123,4
DA:125,4
DA:126,4
DA:128,3
DA:129,3
DA:130,11
DA:131,11
DA:132,11
DA:133,3
DA:134,3
DA:135,3
DA:136,3
DA:137,3
DA:138,3
DA:139,3
DA:142,1
DA:143,1
DA:144,1
DA:145,1
DA:146,1
DA:147,1
DA:148,1
DA:149,1
DA:151,1
DA:153,1
DA:154,1
DA:155,1
DA:156,1
DA:159,1
DA:160,1
DA:161,1
DA:162,1
DA:163,1
DA:164,1
DA:165,1
DA:166,1
DA:168,1
DA:170,1
DA:171,1
DA:172,1
DA:173,1
DA:174,1
DA:177,1
DA:178,1
DA:179,1
DA:180,1
DA:181,1
DA:182,1
DA:183,1
DA:184,1
DA:187,1
DA:189,1
DA:190,1
DA:191,1
DA:192,1
DA:195,1
DA:196,1
DA:197,1
DA:198,1
DA:199,1
DA:200,1
DA:201,1
DA:202,1
DA:204,1
DA:206,1
DA:207,1
DA:208,1
DA:211,1
DA:212,1
DA:213,1
DA:214,1
DA:215,1
DA:216,1
DA:217,1
DA:218,1
DA:220,1
DA:222,1
DA:223,1
BRF:0
BRH:0
LF:171
LH:166
end_of_record
SF:/Users/utsavsharma/Documents/GitHub/Coverage/crates/covy-core/src/model.rs
FN:100,_RNvMs1_NtCsiNDW6BurL4c_9covy_core5modelNtB5_12CoverageData18total_coverage_pct
FN:88,_RNvMs1_NtCsiNDW6BurL4c_9covy_core5modelNtB5_12CoverageData3new
FN:114,_RNvMs1_NtCsiNDW6BurL4c_9covy_core5modelNtB5_12CoverageData5merge
FN:49,_RNvMs_NtCsiNDW6BurL4c_9covy_core5modelNtB4_12FileCoverage17line_coverage_pct
FN:39,_RNvMs_NtCsiNDW6BurL4c_9covy_core5modelNtB4_12FileCoverage3new
FN:58,_RNvMs_NtCsiNDW6BurL4c_9covy_core5modelNtB4_12FileCoverage5merge
FN:15,_RNvXNtCsiNDW6BurL4c_9covy_core5modelNtB2_14CoverageFormatNtNtCsezyhsC6CBT9_4core3fmt7Display3fmt
FN:71,_RNvXs0_NtCsiNDW6BurL4c_9covy_core5modelNtB5_12FileCoverageNtNtCsezyhsC6CBT9_4core7default7Default7default
FN:125,_RNvXs2_NtCsiNDW6BurL4c_9covy_core5modelNtB5_12CoverageDataNtNtCsezyhsC6CBT9_4core7default7Default7default
FN:100,_RNvMs1_NtCsdQn9z6oCjmV_9covy_core5modelNtB5_12CoverageData18total_coverage_pct
FN:88,_RNvMs1_NtCsdQn9z6oCjmV_9covy_core5modelNtB5_12CoverageData3new
FN:49,_RNvMs_NtCsdQn9z6oCjmV_9covy_core5modelNtB4_12FileCoverage17line_coverage_pct
FN:39,_RNvMs_NtCsdQn9z6oCjmV_9covy_core5modelNtB4_12FileCoverage3new
FN:114,_RNvMs1_NtCsdQn9z6oCjmV_9covy_core5modelNtB5_12CoverageData5merge
FN:58,_RNvMs_NtCsdQn9z6oCjmV_9covy_core5modelNtB4_12FileCoverage5merge
FN:15,_RNvXNtCsdQn9z6oCjmV_9covy_core5modelNtB2_14CoverageFormatNtNtCsezyhsC6CBT9_4core3fmt7Display3fmt
FN:71,_RNvXs0_NtCsdQn9z6oCjmV_9covy_core5modelNtB5_12FileCoverageNtNtCsezyhsC6CBT9_4core7default7Default7default
FN:125,_RNvXs2_NtCsdQn9z6oCjmV_9covy_core5modelNtB5_12CoverageDataNtNtCsezyhsC6CBT9_4core7default7Default7default
FNDA:17,_RNvMs1_NtCsiNDW6BurL4c_9covy_core5modelNtB5_12CoverageData18total_coverage_pct
FNDA:34,_RNvMs1_NtCsiNDW6BurL4c_9covy_core5modelNtB5_12CoverageData3new
FNDA:8,_RNvMs1_NtCsiNDW6BurL4c_9covy_core5modelNtB5_12CoverageData5merge
FNDA:8,_RNvMs_NtCsiNDW6BurL4c_9covy_core5modelNtB4_12FileCoverage17line_coverage_pct
FNDA:118,_RNvMs_NtCsiNDW6BurL4c_9covy_core5modelNtB4_12FileCoverage3new
FNDA:45,_RNvMs_NtCsiNDW6BurL4c_9covy_core5modelNtB4_12FileCoverage5merge
FNDA:0,_RNvXNtCsiNDW6BurL4c_9covy_core5modelNtB2_14CoverageFormatNtNtCsezyhsC6CBT9_4core3fmt7Display3fmt
FNDA:0,_RNvXs0_NtCsiNDW6BurL4c_9covy_core5modelNtB5_12FileCoverageNtNtCsezyhsC6CBT9_4core7default7Default7default
FNDA:0,_RNvXs2_NtCsiNDW6BurL4c_9covy_core5modelNtB5_12CoverageDataNtNtCsezyhsC6CBT9_4core7default7Default7default
FNDA:6,_RNvMs1_NtCsdQn9z6oCjmV_9covy_core5modelNtB5_12CoverageData18total_coverage_pct
FNDA:7,_RNvMs1_NtCsdQn9z6oCjmV_9covy_core5modelNtB5_12CoverageData3new
FNDA:1,_RNvMs_NtCsdQn9z6oCjmV_9covy_core5modelNtB4_12FileCoverage17line_coverage_pct
FNDA:6,_RNvMs_NtCsdQn9z6oCjmV_9covy_core5modelNtB4_12FileCoverage3new
FNDA:0,_RNvMs1_NtCsdQn9z6oCjmV_9covy_core5modelNtB5_12CoverageData5merge
FNDA:0,_RNvMs_NtCsdQn9z6oCjmV_9covy_core5modelNtB4_12FileCoverage5merge
FNDA:0,_RNvXNtCsdQn9z6oCjmV_9covy_core5modelNtB2_14CoverageFormatNtNtCsezyhsC6CBT9_4core3fmt7Display3fmt
FNDA:0,_RNvXs0_NtCsdQn9z6oCjmV_9covy_core5modelNtB5_12FileCoverageNtNtCsezyhsC6CBT9_4core7default7Default7default
FNDA:0,_RNvXs2_NtCsdQn9z6oCjmV_9covy_core5modelNtB5_12CoverageDataNtNtCsezyhsC6CBT9_4core7default7Default7default
FNF:9
FNH:6
DA:15,0
DA:16,0
DA:17,0
DA:18,0
DA:19,0
DA:20,0
DA:22,0
DA:39,124
DA:40,124
DA:41,124
DA:42,124
DA:43,124
DA:44,124
DA:45,124
DA:46,124
DA:49,9
DA:50,9
DA:51,9
DA:52,0
DA:53,9
DA:54,9
DA:55,9
DA:58,45
DA:59,45
DA:60,45
DA:61,45
DA:62,1
DA:63,1
DA:64,45
DA:65,13
DA:66,13
DA:67,45
DA:71,0
DA:72,0
DA:73,0
DA:88,41
DA:89,41
DA:90,41
DA:91,41
DA:92,41
DA:93,41
DA:94,41
DA:95,41
DA:96,41
DA:97,41
DA:100,23
DA:101,23
DA:102,23
DA:103,32
DA:104,32
DA:105,32
DA:106,32
DA:107,23
DA:108,3
DA:109,20
DA:110,20
DA:111,23
DA:114,8
DA:115,15
DA:116,15
DA:117,15
DA:118,15
DA:119,15
DA:120,15
DA:121,8
DA:125,0
DA:126,0
DA:127,0
BRF:0
BRH:0
LF:68
LH:54
end_of_record
SF:/Users/utsavsharma/Documents/GitHub/Coverage/crates/covy-core/src/pathmap.rs
FN:105,_RNCNvMNtCsiNDW6BurL4c_9covy_core7pathmapNtB4_10PathMapper13resolve_inner0B6_
FN:115,_RNCNvMNtCsiNDW6BurL4c_9covy_core7pathmapNtB4_10PathMapper15resolve_by_hash0B6_
FN:127,_RNCNvNtCsiNDW6BurL4c_9covy_core7pathmap17common_suffix_len0B5_
FN:105,_RNCNvMNtCsdQn9z6oCjmV_9covy_core7pathmapNtB4_10PathMapper13resolve_inner0B6_
FN:127,_RNCNvNtCsdQn9z6oCjmV_9covy_core7pathmap17common_suffix_len0B5_
FN:162,_RNvNtNtCsdQn9z6oCjmV_9covy_core7pathmap5testss_12test_caching
FN:136,_RNvNtNtCsdQn9z6oCjmV_9covy_core7pathmap5testss_16test_exact_match
FN:143,_RNvNtNtCsdQn9z6oCjmV_9covy_core7pathmap5testss_17test_strip_prefix
FN:150,_RNvNtNtCsdQn9z6oCjmV_9covy_core7pathmap5testss_22test_rule_substitution
FN:64,_RNvMNtCsdQn9z6oCjmV_9covy_core7pathmapNtB2_10PathMapper13resolve_inner
FN:18,_RNvMNtCsdQn9z6oCjmV_9covy_core7pathmapNtB2_10PathMapper3new
FN:54,_RNvMNtCsdQn9z6oCjmV_9covy_core7pathmapNtB2_10PathMapper7resolve
FN:119,_RNvNtCsdQn9z6oCjmV_9covy_core7pathmap14normalize_path
FN:123,_RNvNtCsdQn9z6oCjmV_9covy_core7pathmap17common_suffix_len
FN:115,_RNCNvMNtCsdQn9z6oCjmV_9covy_core7pathmapNtB4_10PathMapper15resolve_by_hash0B6_
FN:112,_RNvMNtCsdQn9z6oCjmV_9covy_core7pathmapNtB2_10PathMapper15resolve_by_hash
FNDA:0,_RNCNvMNtCsiNDW6BurL4c_9covy_core7pathmapNtB4_10PathMapper13resolve_inner0B6_
FNDA:0,_RNCNvMNtCsiNDW6BurL4c_9covy_core7pathmapNtB4_10PathMapper15resolve_by_hash0B6_
FNDA:0,_RNCNvNtCsiNDW6BurL4c_9covy_core7pathmap17common_suffix_len0B5_
FNDA:0,_RNCNvMNtCsdQn9z6oCjmV_9covy_core7pathmapNtB4_10PathMapper13resolve_inner0B6_
FNDA:0,_RNCNvNtCsdQn9z6oCjmV_9covy_core7pathmap17common_suffix_len0B5_
FNDA:1,_RNvNtNtCsdQn9z6oCjmV_9covy_core7pathmap5testss_12test_caching
FNDA:1,_RNvNtNtCsdQn9z6oCjmV_9covy_core7pathmap5testss_16test_exact_match
FNDA:1,_RNvNtNtCsdQn9z6oCjmV_9covy_core7pathmap5testss_17test_strip_prefix
FNDA:1,_RNvNtNtCsdQn9z6oCjmV_9covy_core7pathmap5testss_22test_rule_substitution
FNDA:4,_RNvMNtCsdQn9z6oCjmV_9covy_core7pathmapNtB2_10PathMapper13resolve_inner
FNDA:4,_RNvMNtCsdQn9z6oCjmV_9covy_core7pathmapNtB2_10PathMapper3new
FNDA:5,_RNvMNtCsdQn9z6oCjmV_9covy_core7pathmapNtB2_10PathMapper7resolve
FNDA:0,_RNvNtCsdQn9z6oCjmV_9covy_core7pathmap14normalize_path
FNDA:0,_RNvNtCsdQn9z6oCjmV_9covy_core7pathmap17common_suffix_len
FNDA:0,_RNCNvMNtCsdQn9z6oCjmV_9covy_core7pathmapNtB4_10PathMapper15resolve_by_hash0B6_
FNDA:0,_RNvMNtCsdQn9z6oCjmV_9covy_core7pathmapNtB2_10PathMapper15resolve_by_hash
FNF:13
FNH:7
DA:18,4
DA:19,4
DA:20,4
DA:21,4
DA:22,4
DA:23,4
DA:24,4
DA:26,4
DA:27,0
DA:29,0
DA:30,0
DA:31,0
DA:32,0
DA:33,0
DA:34,0
DA:36,0
DA:37,0
DA:38,0
DA:39,0
DA:41,4
DA:43,4
DA:44,4
DA:45,4
DA:46,4
DA:47,4
DA:48,4
DA:49,4
DA:50,4
DA:54,5
DA:55,5
DA:56,1
DA:57,4
DA:59,4
DA:60,4
DA:61,4
DA:62,5
DA:64,4
DA:66,4
DA:67,2
DA:68,2
DA:71,2
DA:72,1
DA:73,1
DA:74,1
DA:75,1
DA:76,0
DA:77,0
DA:81,1
DA:82,1
DA:83,1
DA:84,1
DA:85,0
DA:89,0
DA:90,0
DA:91,0
DA:92,0
DA:93,0
DA:95,0
DA:96,0
DA:97,0
DA:98,0
DA:99,0
DA:100,0
DA:101,0
DA:102,0
DA:103,0
DA:105,0
DA:106,0
DA:108,0
DA:109,4
DA:112,0
DA:113,0
DA:114,0
DA:115,0
DA:116,0
DA:119,0
DA:120,0
DA:121,0
DA:123,0
DA:124,0
DA:125,0
DA:126,0
DA:127,0
DA:128,0
DA:129,0
DA:136,1
DA:137,1
DA:138,1
DA:139,1
DA:140,1
DA:143,1
DA:144,1
DA:145,1
DA:146,1
DA:147,1
DA:150,1
DA:151,1
DA:152,1
DA:153,1
DA:154,1
DA:155,1
DA:156,1
DA:157,1
DA:159,1
DA:162,1
DA:163,1
DA:164,1
DA:165,1
DA:167,1
DA:168,1
BRF:0
BRH:0
LF:113
LH:64
end_of_record
SF:/Users/utsavsharma/Documents/GitHub/Coverage/crates/covy-core/src/report.rs
FN:101,_RNvNtCsiNDW6BurL4c_9covy_core6report11render_json
FN:129,_RNvNtCsiNDW6BurL4c_9covy_core6report14coverage_color
FN:7,_RNvNtCsiNDW6BurL4c_9covy_core6report15render_terminal
FN:125,_RNvNtCsiNDW6BurL4c_9covy_core6report16render_gate_json
FN:140,_RNvNtCsiNDW6BurL4c_9covy_core6report18format_line_ranges
FN:72,_RNvNtCsiNDW6BurL4c_9covy_core6report18render_gate_result
FN:19,_RNCNvNtCsiNDW6BurL4c_9covy_core6report15render_terminal0B5_
FN:25,_RNCNvNtCsiNDW6BurL4c_9covy_core6report15render_terminals0_0B5_
FN:24,_RNCNvNtCsiNDW6BurL4c_9covy_core6report15render_terminals_0B5_
FN:195,_RNvNtNtCsdQn9z6oCjmV_9covy_core6report5testss_16test_render_json
FN:177,_RNvNtNtCsdQn9z6oCjmV_9covy_core6report5testss_23test_format_line_ranges
FN:189,_RNvNtNtCsdQn9z6oCjmV_9covy_core6report5testss_29test_format_line_ranges_empty
FN:19,_RNCNvNtCsdQn9z6oCjmV_9covy_core6report15render_terminal0B5_
FN:25,_RNCNvNtCsdQn9z6oCjmV_9covy_core6report15render_terminals0_0B5_
FN:24,_RNCNvNtCsdQn9z6oCjmV_9covy_core6report15render_terminals_0B5_
FN:129,_RNvNtCsdQn9z6oCjmV_9covy_core6report14coverage_color
FN:7,_RNvNtCsdQn9z6oCjmV_9covy_core6report15render_terminal
FN:125,_RNvNtCsdQn9z6oCjmV_9covy_core6report16render_gate_json
FN:72,_RNvNtCsdQn9z6oCjmV_9covy_core6report18render_gate_result
FN:101,_RNvNtCsdQn9z6oCjmV_9covy_core6report11render_json
FN:140,_RNvNtCsdQn9z6oCjmV_9covy_core6report18format_line_ranges
FNDA:2,_RNvNtCsiNDW6BurL4c_9covy_core6report11render_json
FNDA:4,_RNvNtCsiNDW6BurL4c_9covy_core6report14coverage_color
FNDA:2,_RNvNtCsiNDW6BurL4c_9covy_core6report15render_terminal
FNDA:0,_RNvNtCsiNDW6BurL4c_9covy_core6report16render_gate_json
FNDA:0,_RNvNtCsiNDW6BurL4c_9covy_core6report18format_line_ranges
FNDA:0,_RNvNtCsiNDW6BurL4c_9covy_core6report18render_gate_result
FNDA:0,_RNCNvNtCsiNDW6BurL4c_9covy_core6report15render_terminal0B5_
FNDA:0,_RNCNvNtCsiNDW6BurL4c_9covy_core6report15render_terminals0_0B5_
FNDA:4,_RNCNvNtCsiNDW6BurL4c_9covy_core6report15render_terminals_0B5_
FNDA:1,_RNvNtNtCsdQn9z6oCjmV_9covy_core6report5testss_16test_render_json
FNDA:1,_RNvNtNtCsdQn9z6oCjmV_9covy_core6report5testss_23test_format_line_ranges
FNDA:1,_RNvNtNtCsdQn9z6oCjmV_9covy_core6report5testss_29test_format_line_ranges_empty
FNDA:0,_RNCNvNtCsdQn9z6oCjmV_9covy_core6report15render_terminal0B5_
FNDA:0,_RNCNvNtCsdQn9z6oCjmV_9covy_core6report15render_terminals0_0B5_
FNDA:0,_RNCNvNtCsdQn9z6oCjmV_9covy_core6report15render_terminals_0B5_
FNDA:0,_RNvNtCsdQn9z6oCjmV_9covy_core6report14coverage_color
FNDA:0,_RNvNtCsdQn9z6oCjmV_9covy_core6report15render_terminal
FNDA:0,_RNvNtCsdQn9z6oCjmV_9covy_core6report16render_gate_json
FNDA:0,_RNvNtCsdQn9z6oCjmV_9covy_core6report18render_gate_result
FNDA:1,_RNvNtCsdQn9z6oCjmV_9covy_core6report11render_json
FNDA:2,_RNvNtCsdQn9z6oCjmV_9covy_core6report18format_line_ranges
FNF:12
FNH:8
DA:7,2
DA:8,2
DA:9,2
DA:11,2
DA:12,2
DA:13,0
DA:14,2
DA:15,2
DA:17,2
DA:18,2
DA:19,2
DA:20,0
DA:21,0
DA:22,0
DA:23,0
DA:24,4
DA:25,0
DA:28,4
DA:29,4
DA:30,4
DA:31,4
DA:33,4
DA:34,4
DA:35,4
DA:36,4
DA:37,4
DA:40,4
DA:41,0
DA:42,0
DA:43,0
DA:44,4
DA:46,4
DA:49,2
DA:52,2
DA:53,2
DA:54,0
DA:55,2
DA:56,2
DA:58,0
DA:60,2
DA:61,2
DA:62,2
DA:63,2
DA:64,0
DA:66,0
DA:67,0
DA:68,0
DA:69,2
DA:72,0
DA:73,0
DA:74,0
DA:75,0
DA:76,0
DA:77,0
DA:78,0
DA:79,0
DA:80,0
DA:81,0
DA:82,0
DA:84,0
DA:85,0
DA:86,0
DA:87,0
DA:88,0
DA:89,0
DA:90,0
DA:91,0
DA:92,0
DA:94,0
DA:95,0
DA:96,0
DA:97,0
DA:98,0
DA:101,3
DA:102,3
DA:103,5
DA:104,5
DA:105,5
DA:106,5
DA:107,5
DA:108,5
DA:109,5
DA:110,5
DA:111,5
DA:112,5
DA:113,5
DA:114,5
DA:116,3
DA:117,3
DA:118,3
DA:121,3
DA:122,3
DA:125,0
DA:126,0
DA:127,0
DA:129,4
DA:130,4
DA:131,0
DA:132,4
DA:133,4
DA:135,0
DA:137,4
DA:140,2
DA:141,2
DA:142,1
DA:143,1
DA:144,1
DA:145,1
DA:146,1
DA:147,1
DA:149,5
DA:150,5
DA:151,3
DA:152,3
DA:153,2
DA:154,1
DA:155,1
DA:156,1
DA:157,1
DA:158,2
DA:159,2
DA:162,1
DA:163,0
DA:164,1
DA:165,1
DA:166,1
DA:168,1
DA:169,2
DA:177,1
DA:178,1
DA:179,1
DA:180,1
DA:181,1
DA:182,1
DA:183,1
DA:184,1
DA:185,1
DA:186,1
DA:189,1
DA:190,1
DA:191,1
DA:192,1
DA:195,1
DA:196,1
DA:197,1
DA:198,1
DA:199,1
DA:200,1
DA:201,1
DA:202,1
DA:203,1
DA:205,1
DA:206,1
DA:207,1
DA:208,1
BRF:0
BRH:0
LF:158
LH:110
end_of_record
SF:/Users/utsavsharma/Documents/GitHub/Coverage/crates/covy-core/src/snapshot.rs
FN:18,_RNCNvNtCsiNDW6BurL4c_9covy_core8snapshot14build_snapshot0B5_
FN:27,_RNCNvNtCsiNDW6BurL4c_9covy_core8snapshot14build_snapshots0_0B5_
FN:26,_RNCNvNtCsiNDW6BurL4c_9covy_core8snapshot14build_snapshots_0B5_
FN:18,_RNCNvNtCsdQn9z6oCjmV_9covy_core8snapshot14build_snapshot0B5_
FN:27,_RNCNvNtCsdQn9z6oCjmV_9covy_core8snapshot14build_snapshots0_0B5_
FN:26,_RNCNvNtCsdQn9z6oCjmV_9covy_core8snapshot14build_snapshots_0B5_
FN:10,_RNvNtCsdQn9z6oCjmV_9covy_core8snapshot14build_snapshot
FN:63,_RNvNtNtCsdQn9z6oCjmV_9covy_core8snapshot5testss_19test_snapshot_basic
FN:74,_RNvNtNtCsdQn9z6oCjmV_9covy_core8snapshot5testss_27test_snapshot_deterministic
FN:85,_RNvNtNtCsdQn9z6oCjmV_9covy_core8snapshot5testss_29test_snapshot_changes_on_edit
FNDA:0,_RNCNvNtCsiNDW6BurL4c_9covy_core8snapshot14build_snapshot0B5_
FNDA:0,_RNCNvNtCsiNDW6BurL4c_9covy_core8snapshot14build_snapshots0_0B5_
FNDA:0,_RNCNvNtCsiNDW6BurL4c_9covy_core8snapshot14build_snapshots_0B5_
FNDA:8,_RNCNvNtCsdQn9z6oCjmV_9covy_core8snapshot14build_snapshot0B5_
FNDA:13,_RNCNvNtCsdQn9z6oCjmV_9covy_core8snapshot14build_snapshots0_0B5_
FNDA:0,_RNCNvNtCsdQn9z6oCjmV_9covy_core8snapshot14build_snapshots_0B5_
FNDA:5,_RNvNtCsdQn9z6oCjmV_9covy_core8snapshot14build_snapshot
FNDA:1,_RNvNtNtCsdQn9z6oCjmV_9covy_core8snapshot5testss_19test_snapshot_basic
FNDA:1,_RNvNtNtCsdQn9z6oCjmV_9covy_core8snapshot5testss_27test_snapshot_deterministic
FNDA:1,_RNvNtNtCsdQn9z6oCjmV_9covy_core8snapshot5testss_29test_snapshot_changes_on_edit
FNF:7
FNH:6
DA:10,5
DA:11,5
DA:13,5
DA:14,5
DA:15,5
DA:16,5
DA:17,5
DA:18,8
DA:20,8
DA:21,8
DA:22,8
DA:23,5
DA:25,13
DA:26,13
DA:27,13
DA:28,5
DA:29,8
DA:30,8
DA:31,8
DA:32,8
DA:33,8
DA:34,8
DA:35,8
DA:37,8
DA:38,8
DA:39,8
DA:43,5
DA:44,8
DA:45,8
DA:46,8
DA:47,8
DA:48,5
DA:50,5
DA:51,5
DA:52,5
DA:53,5
DA:54,5
DA:63,1
DA:64,1
DA:65,1
DA:66,1
DA:68,1
DA:69,1
DA:70,1
DA:71,1
DA:74,1
DA:75,1
DA:76,1
DA:77,1
DA:79,1
DA:80,1
DA:81,1
DA:82,1
DA:85,1
DA:86,1
DA:87,1
DA:88,1
DA:90,1
DA:91,1
DA:92,1
DA:93,1
BRF:0
BRH:0
LF:64
LH:63
end_of_record
SF:/Users/utsavsharma/Documents/GitHub/Coverage/crates/covy-ingest/src/cobertura.rs
FN:133,_RNvNtCs71xecPw2oMU_11covy_ingest9cobertura12resolve_path
FN:20,_RNvNtCs71xecPw2oMU_11covy_ingest9cobertura15parse_cobertura
FN:144,_RNvNtCs71xecPw2oMU_11covy_ingest9cobertura17normalize_slashes
FN:124,_RNvNtCs71xecPw2oMU_11covy_ingest9cobertura8get_attr
FN:15,_RNvXNtCs71xecPw2oMU_11covy_ingest9coberturaNtB2_17CoberturaIngestorNtB4_8Ingestor5parse
FN:11,_RNvXNtCs71xecPw2oMU_11covy_ingest9coberturaNtB2_17CoberturaIngestorNtB4_8Ingestor6format
FN:15,_RNvXNtCs4QjHPz0FTak_11covy_ingest9coberturaNtB2_17CoberturaIngestorNtB4_8Ingestor5parse
FN:11,_RNvXNtCs4QjHPz0FTak_11covy_ingest9coberturaNtB2_17CoberturaIngestorNtB4_8Ingestor6format
FN:133,_RNvNtCs4QjHPz0FTak_11covy_ingest9cobertura12resolve_path
FN:20,_RNvNtCs4QjHPz0FTak_11covy_ingest9cobertura15parse_cobertura
FN:144,_RNvNtCs4QjHPz0FTak_11covy_ingest9cobertura17normalize_slashes
FN:124,_RNvNtCs4QjHPz0FTak_11covy_ingest9cobertura8get_attr
FN:153,_RNvNtNtCs4QjHPz0FTak_11covy_ingest9cobertura5testss_26test_parse_cobertura_basic
FN:182,_RNvNtNtCs4QjHPz0FTak_11covy_ingest9cobertura5testss_37test_parse_cobertura_multiple_classes
FNDA:2,_RNvNtCs71xecPw2oMU_11covy_ingest9cobertura12resolve_path
FNDA:2,_RNvNtCs71xecPw2oMU_11covy_ingest9cobertura15parse_cobertura
FNDA:2,_RNvNtCs71xecPw2oMU_11covy_ingest9cobertura17normalize_slashes
FNDA:22,_RNvNtCs71xecPw2oMU_11covy_ingest9cobertura8get_attr
FNDA:2,_RNvXNtCs71xecPw2oMU_11covy_ingest9coberturaNtB2_17CoberturaIngestorNtB4_8Ingestor5parse
FNDA:0,_RNvXNtCs71xecPw2oMU_11covy_ingest9coberturaNtB2_17CoberturaIngestorNtB4_8Ingestor6format
FNDA:0,_RNvXNtCs4QjHPz0FTak_11covy_ingest9coberturaNtB2_17CoberturaIngestorNtB4_8Ingestor5parse
FNDA:0,_RNvXNtCs4QjHPz0FTak_11covy_ingest9coberturaNtB2_17CoberturaIngestorNtB4_8Ingestor6format
FNDA:3,_RNvNtCs4QjHPz0FTak_11covy_ingest9cobertura12resolve_path
FNDA:2,_RNvNtCs4QjHPz0FTak_11covy_ingest9cobertura15parse_cobertura
FNDA:3,_RNvNtCs4QjHPz0FTak_11covy_ingest9cobertura17normalize_slashes
FNDA:17,_RNvNtCs4QjHPz0FTak_11covy_ingest9cobertura8get_attr
FNDA:1,_RNvNtNtCs4QjHPz0FTak_11covy_ingest9cobertura5testss_26test_parse_cobertura_basic
FNDA:1,_RNvNtNtCs4QjHPz0FTak_11covy_ingest9cobertura5testss_37test_parse_cobertura_multiple_classes
FNF:8
FNH:7
DA:11,0
DA:12,0
DA:13,0
DA:15,2
DA:16,2
DA:17,2
DA:20,4
DA:21,4
DA:22,4
DA:24,4
DA:25,4
DA:27,4
DA:28,4
DA:29,4
DA:30,4
DA:31,4
DA:34,92
DA:35,32
DA:36,49
DA:37,49
DA:38,49
DA:39,3
DA:40,3
DA:41,38
DA:42,3
DA:43,3
DA:44,35
DA:46,5
DA:48,5
DA:49,0
DA:50,0
DA:51,0
DA:52,0
DA:53,0
DA:54,0
DA:55,0
DA:56,5
DA:57,5
DA:58,0
DA:60,25
DA:61,17
DA:62,17
DA:63,17
DA:65,17
DA:66,17
DA:68,17
DA:69,17
DA:70,11
DA:71,11
DA:72,0
DA:73,0
DA:74,0
DA:76,21
DA:79,32
DA:80,32
DA:81,32
DA:82,3
DA:83,3
DA:84,21
DA:86,9
DA:87,5
DA:88,5
DA:89,5
DA:90,5
DA:91,5
DA:92,5
DA:93,5
DA:94,5
DA:96,20
DA:99,3
DA:100,3
DA:101,3
DA:102,3
DA:103,3
DA:104,3
DA:105,3
DA:106,0
DA:107,0
DA:109,4
DA:110,0
DA:111,0
DA:112,0
DA:113,0
DA:114,0
DA:116,4
DA:118,88
DA:121,4
DA:122,4
DA:124,39
DA:125,61
DA:126,61
DA:127,39
DA:128,22
DA:130,0
DA:131,39
DA:133,5
DA:135,5
DA:136,2
DA:137,3
DA:141,3
DA:142,5
DA:144,5
DA:145,5
DA:146,5
DA:153,1
DA:154,1
DA:155,1
DA:156,1
DA:157,1
DA:158,1
DA:159,1
DA:160,1
DA:161,1
DA:162,1
DA:163,1
DA:164,1
DA:165,1
DA:166,1
DA:167,1
DA:168,1
DA:169,1
DA:170,1
DA:171,1
DA:172,1
DA:174,1
DA:175,1
DA:176,1
DA:177,1
DA:178,1
DA:179,1
DA:182,1
DA:183,1
DA:184,1
DA:185,1
DA:186,1
DA:187,1
DA:188,1
DA:189,1
DA:190,1
DA:191,1
DA:192,1
DA:193,1
DA:194,1
DA:195,1
DA:196,1
DA:197,1
DA:198,1
DA:199,1
DA:200,1
DA:201,1
DA:202,1
DA:203,1
DA:205,1
DA:206,1
DA:207,1
BRF:0
BRH:0
LF:155
LH:133
end_of_record
SF:/Users/utsavsharma/Documents/GitHub/Coverage/crates/covy-ingest/src/gocov.rs
FN:12,_RNCNvNtCs71xecPw2oMU_11covy_ingest5gocov7LINE_RE0B5_
FN:23,_RNCNvXNtCs71xecPw2oMU_11covy_ingest5gocovNtB4_13GoCovIngestorNtB6_8Ingestor5parse0B6_
FN:28,_RNvNtCs71xecPw2oMU_11covy_ingest5gocov11parse_gocov
FN:91,_RNvNtCs71xecPw2oMU_11covy_ingest5gocov18find_go_module_end
FN:21,_RNvXNtCs71xecPw2oMU_11covy_ingest5gocovNtB2_13GoCovIngestorNtB4_8Ingestor5parse
FN:17,_RNvXNtCs71xecPw2oMU_11covy_ingest5gocovNtB2_13GoCovIngestorNtB4_8Ingestor6format
FN:23,_RNCNvXNtCs4QjHPz0FTak_11covy_ingest5gocovNtB4_13GoCovIngestorNtB6_8Ingestor5parse0B6_
FN:21,_RNvXNtCs4QjHPz0FTak_11covy_ingest5gocovNtB2_13GoCovIngestorNtB4_8Ingestor5parse
FN:17,_RNvXNtCs4QjHPz0FTak_11covy_ingest5gocovNtB2_13GoCovIngestorNtB4_8Ingestor6format
FN:12,_RNCNvNtCs4QjHPz0FTak_11covy_ingest5gocov7LINE_RE0B5_
FN:138,_RNvNtNtCs4QjHPz0FTak_11covy_ingest5gocov5testss_20test_find_module_end
FN:109,_RNvNtNtCs4QjHPz0FTak_11covy_ingest5gocov5testss_22test_parse_gocov_basic
FN:131,_RNvNtNtCs4QjHPz0FTak_11covy_ingest5gocov5testss_22test_parse_gocov_empty
FN:28,_RNvNtCs4QjHPz0FTak_11covy_ingest5gocov11parse_gocov
FN:91,_RNvNtCs4QjHPz0FTak_11covy_ingest5gocov18find_go_module_end
FNDA:2,_RNCNvNtCs71xecPw2oMU_11covy_ingest5gocov7LINE_RE0B5_
FNDA:0,_RNCNvXNtCs71xecPw2oMU_11covy_ingest5gocovNtB4_13GoCovIngestorNtB6_8Ingestor5parse0B6_
FNDA:2,_RNvNtCs71xecPw2oMU_11covy_ingest5gocov11parse_gocov
FNDA:2,_RNvNtCs71xecPw2oMU_11covy_ingest5gocov18find_go_module_end
FNDA:2,_RNvXNtCs71xecPw2oMU_11covy_ingest5gocovNtB2_13GoCovIngestorNtB4_8Ingestor5parse
FNDA:0,_RNvXNtCs71xecPw2oMU_11covy_ingest5gocovNtB2_13GoCovIngestorNtB4_8Ingestor6format
FNDA:0,_RNCNvXNtCs4QjHPz0FTak_11covy_ingest5gocovNtB4_13GoCovIngestorNtB6_8Ingestor5parse0B6_
FNDA:0,_RNvXNtCs4QjHPz0FTak_11covy_ingest5gocovNtB2_13GoCovIngestorNtB4_8Ingestor5parse
FNDA:0,_RNvXNtCs4QjHPz0FTak_11covy_ingest5gocovNtB2_13GoCovIngestorNtB4_8Ingestor6format
FNDA:1,_RNCNvNtCs4QjHPz0FTak_11covy_ingest5gocov7LINE_RE0B5_
FNDA:1,_RNvNtNtCs4QjHPz0FTak_11covy_ingest5gocov5testss_20test_find_module_end
FNDA:1,_RNvNtNtCs4QjHPz0FTak_11covy_ingest5gocov5testss_22test_parse_gocov_basic
FNDA:1,_RNvNtNtCs4QjHPz0FTak_11covy_ingest5gocov5testss_22test_parse_gocov_empty
FNDA:2,_RNvNtCs4QjHPz0FTak_11covy_ingest5gocov11parse_gocov
FNDA:3,_RNvNtCs4QjHPz0FTak_11covy_ingest5gocov18find_go_module_end
FNF:9
FNH:7
DA:12,3
DA:13,3
DA:14,3
DA:17,0
DA:18,0
DA:19,0
DA:21,2
DA:22,2
DA:23,2
DA:24,2
DA:25,2
DA:28,4
DA:29,4
DA:30,4
DA:33,4
DA:35,15
DA:36,15
DA:38,15
DA:39,4
DA:40,11
DA:42,11
DA:43,11
DA:44,11
DA:45,11
DA:46,11
DA:49,11
DA:52,3
DA:53,3
DA:54,3
DA:55,0
DA:56,0
DA:57,8
DA:60,11
DA:61,11
DA:62,11
DA:64,0
DA:67,0
DA:70,11
DA:71,11
DA:72,11
DA:73,11
DA:76,52
DA:77,52
DA:78,52
DA:79,34
DA:80,34
DA:82,0
DA:85,4
DA:86,4
DA:91,5
DA:92,5
DA:93,97
DA:94,97
DA:95,12
DA:96,12
DA:97,4
DA:98,8
DA:99,85
DA:101,1
DA:102,5
DA:109,1
DA:110,1
DA:111,1
DA:112,1
DA:113,1
DA:114,1
DA:116,1
DA:117,1
DA:119,1
DA:121,1
DA:122,1
DA:123,1
DA:124,1
DA:126,1
DA:127,1
DA:128,1
DA:131,1
DA:132,1
DA:133,1
DA:134,1
DA:135,1
DA:138,1
DA:139,1
DA:140,1
DA:143,1
DA:144,1
BRF:0
BRH:0
LF:87
LH:78
end_of_record
SF:/Users/utsavsharma/Documents/GitHub/Coverage/crates/covy-ingest/src/jacoco.rs
FN:20,_RNvNtCs71xecPw2oMU_11covy_ingest6jacoco12parse_jacoco
FN:108,_RNvNtCs71xecPw2oMU_11covy_ingest6jacoco8get_attr
FN:15,_RNvXNtCs71xecPw2oMU_11covy_ingest6jacocoNtB2_14JaCoCoIngestorNtB4_8Ingestor5parse
FN:11,_RNvXNtCs71xecPw2oMU_11covy_ingest6jacocoNtB2_14JaCoCoIngestorNtB4_8Ingestor6format
FN:15,_RNvXNtCs4QjHPz0FTak_11covy_ingest6jacocoNtB2_14JaCoCoIngestorNtB4_8Ingestor5parse
FN:11,_RNvXNtCs4QjHPz0FTak_11covy_ingest6jacocoNtB2_14JaCoCoIngestorNtB4_8Ingestor6format
FN:20,_RNvNtCs4QjHPz0FTak_11covy_ingest6jacoco12parse_jacoco
FN:108,_RNvNtCs4QjHPz0FTak_11covy_ingest6jacoco8get_attr
FN:122,_RNvNtNtCs4QjHPz0FTak_11covy_ingest6jacoco5testss_23test_parse_jacoco_basic
FN:146,_RNvNtNtCs4QjHPz0FTak_11covy_ingest6jacoco5testss_35test_parse_jacoco_multiple_packages
FNDA:2,_RNvNtCs71xecPw2oMU_11covy_ingest6jacoco12parse_jacoco
FNDA:30,_RNvNtCs71xecPw2oMU_11covy_ingest6jacoco8get_attr
FNDA:2,_RNvXNtCs71xecPw2oMU_11covy_ingest6jacocoNtB2_14JaCoCoIngestorNtB4_8Ingestor5parse
FNDA:0,_RNvXNtCs71xecPw2oMU_11covy_ingest6jacocoNtB2_14JaCoCoIngestorNtB4_8Ingestor6format
FNDA:0,_RNvXNtCs4QjHPz0FTak_11covy_ingest6jacocoNtB2_14JaCoCoIngestorNtB4_8Ingestor5parse
FNDA:0,_RNvXNtCs4QjHPz0FTak_11covy_ingest6jacocoNtB2_14JaCoCoIngestorNtB4_8Ingestor6format
FNDA:2,_RNvNtCs4QjHPz0FTak_11covy_ingest6jacoco12parse_jacoco
FNDA:16,_RNvNtCs4QjHPz0FTak_11covy_ingest6jacoco8get_attr
FNDA:1,_RNvNtNtCs4QjHPz0FTak_11covy_ingest6jacoco5testss_23test_parse_jacoco_basic
FNDA:1,_RNvNtNtCs4QjHPz0FTak_11covy_ingest6jacoco5testss_35test_parse_jacoco_multiple_packages
FNF:6
FNH:5
DA:11,0
DA:12,0
DA:13,0
DA:15,2
DA:16,2
DA:17,2
DA:20,4
DA:21,4
DA:22,4
DA:24,4
DA:25,4
DA:27,4
DA:28,4
DA:29,4
DA:30,4
DA:33,60
DA:34,17
DA:35,33
DA:36,33
DA:37,33
DA:38,5
DA:39,5
DA:40,28
DA:42,7
DA:43,0
DA:44,0
DA:45,0
DA:46,0
DA:47,0
DA:48,0
DA:49,0
DA:50,0
DA:51,7
DA:52,7
DA:54,21
DA:55,17
DA:56,17
DA:57,17
DA:59,17
DA:60,17
DA:62,17
DA:63,17
DA:64,11
DA:65,11
DA:66,0
DA:67,0
DA:68,0
DA:70,4
DA:73,16
DA:74,16
DA:75,16
DA:76,7
DA:77,7
DA:78,7
DA:79,7
DA:80,7
DA:81,7
DA:82,7
DA:83,7
DA:84,7
DA:85,7
DA:87,9
DA:88,5
DA:89,5
DA:90,4
DA:93,4
DA:94,0
DA:95,0
DA:96,0
DA:97,0
DA:98,0
DA:100,7
DA:102,56
DA:105,4
DA:106,4
DA:108,46
DA:109,80
DA:110,80
DA:111,46
DA:112,34
DA:114,0
DA:115,46
DA:122,1
DA:123,1
DA:124,1
DA:125,1
DA:126,1
DA:127,1
DA:128,1
DA:129,1
DA:130,1
DA:131,1
DA:132,1
DA:133,1
DA:135,1
DA:136,1
DA:137,1
DA:138,1
DA:139,1
DA:140,1
DA:141,1
DA:142,1
DA:143,1
DA:146,1
DA:147,1
DA:148,1
DA:149,1
DA:150,1
DA:151,1
DA:152,1
DA:153,1
DA:154,1
DA:155,1
DA:156,1
DA:157,1
DA:158,1
DA:159,1
DA:161,1
DA:162,1
DA:163,1
DA:164,1
DA:165,1
BRF:0
BRH:0
LF:122
LH:102
end_of_record
SF:/Users/utsavsharma/Documents/GitHub/Coverage/crates/covy-ingest/src/lcov.rs
FN:15,_RNCNvXNtCs71xecPw2oMU_11covy_ingest4lcovNtB4_12LcovIngestorNtB6_8Ingestor5parse0B6_
FN:20,_RNvNtCs71xecPw2oMU_11covy_ingest4lcov10parse_lcov
FN:13,_RNvXNtCs71xecPw2oMU_11covy_ingest4lcovNtB2_12LcovIngestorNtB4_8Ingestor5parse
FN:9,_RNvXNtCs71xecPw2oMU_11covy_ingest4lcovNtB2_12LcovIngestorNtB4_8Ingestor6format
FN:15,_RNCNvXNtCs4QjHPz0FTak_11covy_ingest4lcovNtB4_12LcovIngestorNtB6_8Ingestor5parse0B6_
FN:13,_RNvXNtCs4QjHPz0FTak_11covy_ingest4lcovNtB2_12LcovIngestorNtB4_8Ingestor5parse
FN:9,_RNvXNtCs4QjHPz0FTak_11covy_ingest4lcovNtB2_12LcovIngestorNtB4_8Ingestor6format
FN:127,_RNvNtNtCs4QjHPz0FTak_11covy_ingest4lcov5testss_16test_parse_empty
FN:133,_RNvNtNtCs4QjHPz0FTak_11covy_ingest4lcov5testss_20test_merge_same_file
FN:90,_RNvNtNtCs4QjHPz0FTak_11covy_ingest4lcov5testss_21test_parse_basic_lcov
FN:20,_RNvNtCs4QjHPz0FTak_11covy_ingest4lcov10parse_lcov
FNDA:0,_RNCNvXNtCs71xecPw2oMU_11covy_ingest4lcovNtB4_12LcovIngestorNtB6_8Ingestor5parse0B6_
FNDA:7,_RNvNtCs71xecPw2oMU_11covy_ingest4lcov10parse_lcov
FNDA:7,_RNvXNtCs71xecPw2oMU_11covy_ingest4lcovNtB2_12LcovIngestorNtB4_8Ingestor5parse
FNDA:0,_RNvXNtCs71xecPw2oMU_11covy_ingest4lcovNtB2_12LcovIngestorNtB4_8Ingestor6format
FNDA:0,_RNCNvXNtCs4QjHPz0FTak_11covy_ingest4lcovNtB4_12LcovIngestorNtB6_8Ingestor5parse0B6_
FNDA:0,_RNvXNtCs4QjHPz0FTak_11covy_ingest4lcovNtB2_12LcovIngestorNtB4_8Ingestor5parse
FNDA:0,_RNvXNtCs4QjHPz0FTak_11covy_ingest4lcovNtB2_12LcovIngestorNtB4_8Ingestor6format
FNDA:1,_RNvNtNtCs4QjHPz0FTak_11covy_ingest4lcov5testss_16test_parse_empty
FNDA:1,_RNvNtNtCs4QjHPz0FTak_11covy_ingest4lcov5testss_20test_merge_same_file
FNDA:1,_RNvNtNtCs4QjHPz0FTak_11covy_ingest4lcov5testss_21test_parse_basic_lcov
FNDA:3,_RNvNtCs4QjHPz0FTak_11covy_ingest4lcov10parse_lcov
FNF:7
FNH:5
DA:9,0
DA:10,0
DA:11,0
DA:13,7
DA:14,7
DA:15,7
DA:16,7
DA:17,7
DA:20,10
DA:21,10
DA:22,10
DA:24,10
DA:25,10
DA:27,153
DA:28,153
DA:29,153
DA:30,0
DA:31,153
DA:33,153
DA:34,18
DA:35,18
DA:36,18
DA:37,135
DA:39,59
DA:40,59
DA:41,59
DA:42,59
DA:43,59
DA:44,59
DA:45,41
DA:46,41
DA:47,0
DA:48,0
DA:49,76
DA:51,2
DA:52,2
DA:53,2
DA:54,2
DA:55,2
DA:56,2
DA:57,0
DA:58,74
DA:59,8
DA:60,66
DA:62,8
DA:63,8
DA:64,8
DA:65,8
DA:66,8
DA:67,8
DA:68,8
DA:69,58
DA:70,18
DA:71,18
DA:72,18
DA:73,18
DA:74,18
DA:75,18
DA:76,18
DA:77,18
DA:78,40
DA:82,10
DA:83,10
DA:90,1
DA:91,1
DA:92,1
DA:93,1
DA:94,1
DA:95,1
DA:96,1
DA:97,1
DA:98,1
DA:99,1
DA:100,1
DA:101,1
DA:102,1
DA:103,1
DA:104,1
DA:105,1
DA:106,1
DA:107,1
DA:108,1
DA:109,1
DA:110,1
DA:112,1
DA:113,1
DA:115,1
DA:116,1
DA:117,1
DA:118,1
DA:119,1
DA:121,1
DA:122,1
DA:123,1
DA:124,1
DA:127,1
DA:128,1
DA:129,1
DA:130,1
DA:133,1
DA:134,1
DA:135,1
DA:136,1
DA:137,1
DA:138,1
DA:139,1
DA:140,1
DA:141,1
DA:142,1
DA:143,1
DA:144,1
DA:145,1
DA:146,1
DA:147,1
DA:148,1
BRF:0
BRH:0
LF:116
LH:108
end_of_record
SF:/Users/utsavsharma/Documents/GitHub/Coverage/crates/covy-ingest/src/lib.rs
FN:73,_RNvCs71xecPw2oMU_11covy_ingest11ingest_path
FN:63,_RNvCs71xecPw2oMU_11covy_ingest12get_ingestor
FN:18,_RNvCs71xecPw2oMU_11covy_ingest13detect_format
FN:81,_RNvCs71xecPw2oMU_11covy_ingest23ingest_path_with_format
FN:20,_RNCNvCs71xecPw2oMU_11covy_ingest13detect_format0B3_
FN:30,_RNCNvCs71xecPw2oMU_11covy_ingest13detect_formats_0B3_
FN:20,_RNCNvCs4QjHPz0FTak_11covy_ingest13detect_format0B3_
FN:30,_RNCNvCs4QjHPz0FTak_11covy_ingest13detect_formats_0B3_
FN:73,_RNvCs4QjHPz0FTak_11covy_ingest11ingest_path
FN:63,_RNvCs4QjHPz0FTak_11covy_ingest12get_ingestor
FN:18,_RNvCs4QjHPz0FTak_11covy_ingest13detect_format
FN:81,_RNvCs4QjHPz0FTak_11covy_ingest23ingest_path_with_format
FNDA:13,_RNvCs71xecPw2oMU_11covy_ingest11ingest_path
FNDA:13,_RNvCs71xecPw2oMU_11covy_ingest12get_ingestor
FNDA:17,_RNvCs71xecPw2oMU_11covy_ingest13detect_format
FNDA:0,_RNvCs71xecPw2oMU_11covy_ingest23ingest_path_with_format
FNDA:17,_RNCNvCs71xecPw2oMU_11covy_ingest13detect_format0B3_
FNDA:9,_RNCNvCs71xecPw2oMU_11covy_ingest13detect_formats_0B3_
FNDA:0,_RNCNvCs4QjHPz0FTak_11covy_ingest13detect_format0B3_
FNDA:0,_RNCNvCs4QjHPz0FTak_11covy_ingest13detect_formats_0B3_
FNDA:0,_RNvCs4QjHPz0FTak_11covy_ingest11ingest_path
FNDA:0,_RNvCs4QjHPz0FTak_11covy_ingest12get_ingestor
FNDA:0,_RNvCs4QjHPz0FTak_11covy_ingest13detect_format
FNDA:0,_RNvCs4QjHPz0FTak_11covy_ingest23ingest_path_with_format
FNF:6
FNH:5
DA:18,17
DA:20,17
DA:21,17
DA:22,17
DA:23,9
DA:25,0
DA:28,9
DA:29,9
DA:30,9
DA:31,9
DA:33,9
DA:34,0
DA:35,9
DA:38,9
DA:40,9
DA:41,0
DA:42,9
DA:44,9
DA:45,3
DA:46,6
DA:48,6
DA:49,3
DA:50,3
DA:52,3
DA:53,3
DA:54,0
DA:56,0
DA:57,0
DA:58,0
DA:59,0
DA:60,17
DA:63,13
DA:64,13
DA:65,7
DA:66,2
DA:67,2
DA:68,2
DA:70,13
DA:73,13
DA:74,13
DA:75,13
DA:76,13
DA:77,13
DA:78,13
DA:81,0
DA:82,0
DA:83,0
DA:84,0
DA:85,0
BRF:0
BRH:0
LF:51
LH:38
end_of_record